ARM GAS  C:\msys64\tmp\ccIUdZ2e.s 			page 1


   1              		.syntax unified
   2              		.cpu cortex-m4
   3              		.eabi_attribute 27, 1
   4              		.eabi_attribute 28, 1
   5              		.fpu fpv4-sp-d16
   6              		.eabi_attribute 20, 1
   7              		.eabi_attribute 21, 1
   8              		.eabi_attribute 23, 3
   9              		.eabi_attribute 24, 1
  10              		.eabi_attribute 25, 1
  11              		.eabi_attribute 26, 1
  12              		.eabi_attribute 30, 4
  13              		.eabi_attribute 34, 1
  14              		.eabi_attribute 18, 4
  15              		.thumb
  16              		.syntax unified
  17              		.file	"multifx.cpp"
  18              		.text
  19              	.Ltext0:
  20              		.cfi_sections	.debug_frame
  21              		.align	1
  22              		.global	_hook_init
  23              		.thumb
  24              		.thumb_func
  25              		.type	_hook_init, %function
  26              	_hook_init:
  27              	.LFB230:
  28              		.file 1 "./src/multifx.cpp"
  29              		.loc 1 30 0
  30              		.cfi_startproc
  31              		@ args = 0, pretend = 0, frame = 0
  32              		@ frame_needed = 0, uses_anonymous_args = 0
  33              		@ link register save eliminated.
  34              	.LVL0:
  35 0000 7047     		bx	lr
  36              		.cfi_endproc
  37              	.LFE230:
  38              		.size	_hook_init, .-_hook_init
  39              		.global	__aeabi_f2d
  40              		.global	__aeabi_dmul
  41              		.global	__aeabi_d2f
  42              		.align	1
  43              		.global	_hook_process
  44              		.thumb
  45              		.thumb_func
  46              		.type	_hook_process, %function
  47              	_hook_process:
  48              	.LFB231:
  49              		.loc 1 38 0
  50              		.cfi_startproc
  51              		@ args = 4, pretend = 0, frame = 8
  52              		@ frame_needed = 0, uses_anonymous_args = 0
  53              	.LVL1:
  54              		.loc 1 38 0
  55 0002 2DE9F043 		push	{r4, r5, r6, r7, r8, r9, lr}
  56              		.cfi_def_cfa_offset 28
  57              		.cfi_offset 4, -28
ARM GAS  C:\msys64\tmp\ccIUdZ2e.s 			page 2


  58              		.cfi_offset 5, -24
  59              		.cfi_offset 6, -20
  60              		.cfi_offset 7, -16
  61              		.cfi_offset 8, -12
  62              		.cfi_offset 9, -8
  63              		.cfi_offset 14, -4
  64 0006 2DED0C8B 		vpush.64	{d8, d9, d10, d11, d12, d13}
  65              		.cfi_def_cfa_offset 76
  66              		.cfi_offset 80, -76
  67              		.cfi_offset 81, -72
  68              		.cfi_offset 82, -68
  69              		.cfi_offset 83, -64
  70              		.cfi_offset 84, -60
  71              		.cfi_offset 85, -56
  72              		.cfi_offset 86, -52
  73              		.cfi_offset 87, -48
  74              		.cfi_offset 88, -44
  75              		.cfi_offset 89, -40
  76              		.cfi_offset 90, -36
  77              		.cfi_offset 91, -32
  78 000a 83B0     		sub	sp, sp, #12
  79              		.cfi_def_cfa_offset 88
  80              	.LBB11:
  81              		.loc 1 45 0
  82 000c 3F4B     		ldr	r3, .L13
  83              	.LVL2:
  84 000e 169E     		ldr	r6, [sp, #88]
  85 0010 1F68     		ldr	r7, [r3]
  86              		.loc 1 49 0
  87 0012 D3ED019A 		vldr.32	s19, [r3, #4]	@ int
  88              		.loc 1 59 0
  89 0016 93ED02AA 		vldr.32	s20, [r3, #8]
  90              	.LBB12:
  91              	.LBB13:
  92              	.LBB14:
  93              	.LBB15:
  94              		.file 2 "../inc/utils/float_math.h"
  95              		.loc 2 696 0
  96 001a 9FED3D9A 		vldr.32	s18, .L13+4
  97 001e DFED3DCA 		vldr.32	s25, .L13+8
  98 0022 9FED3DDA 		vldr.32	s26, .L13+12
  99              	.LBE15:
 100              	.LBE14:
 101              	.LBE13:
 102              	.LBE12:
 103              	.LBE11:
 104              		.loc 1 38 0
 105 0026 0C46     		mov	r4, r1
 106 0028 7600     		lsls	r6, r6, #1
 107              	.LBB24:
 108              		.loc 1 43 0
 109 002a 0025     		movs	r5, #0
 110              		.loc 1 59 0
 111 002c F2EE04AA 		vmov.f32	s21, #1.0e+1
 112 0030 F7EE008A 		vmov.f32	s17, #1.0e+0
 113              		.loc 1 60 0
 114 0034 B6EE00BA 		vmov.f32	s22, #5.0e-1
ARM GAS  C:\msys64\tmp\ccIUdZ2e.s 			page 3


 115 0038 F7EE08BA 		vmov.f32	s23, #1.5e+0
 116              	.LBB21:
 117              	.LBB18:
 118              		.loc 1 25 0
 119 003c BFEE00CA 		vmov.f32	s24, #-1.0e+0
 120              	.LVL3:
 121              	.L11:
 122              	.LBE18:
 123              	.LBE21:
 124              		.loc 1 43 0 discriminator 1
 125 0040 B542     		cmp	r5, r6
 126 0042 5DD0     		beq	.L2
 127              		.loc 1 45 0
 128 0044 032F     		cmp	r7, #3
 129 0046 59D8     		bhi	.L4
 130 0048 DFE807F0 		tbb	[pc, r7]
 131              	.L6:
 132 004c 02       		.byte	(.L5-.L6)/2
 133 004d 3F       		.byte	(.L8-.L6)/2
 134 004e 3F       		.byte	(.L8-.L6)/2
 135 004f 44       		.byte	(.L9-.L6)/2
 136              		.p2align 1
 137              	.L5:
 138              		.loc 1 49 0
 139 0050 90ED007A 		vldr.32	s14, [r0]
 140              	.LBB22:
 141              	.LBB19:
 142              		.loc 1 25 0
 143 0054 B4EE4C7A 		vcmp.f32	s14, s24
 144 0058 F1EE10FA 		vmrs	APSR_nzcv, FPSCR
 145              	.LBE19:
 146              	.LBE22:
 147              		.loc 1 49 0
 148 005c 04F10409 		add	r9, r4, #4
 149              	.LVL4:
 150 0060 00F10408 		add	r8, r0, #4
 151              	.LVL5:
 152              	.LBB23:
 153              	.LBB20:
 154              		.loc 1 25 0
 155 0064 2CD0     		beq	.L10
 156              	.LBB17:
 157              	.LBB16:
 158              		.loc 2 696 0
 159 0066 F8EEE97A 		vcvt.f32.s32	s15, s19
 160 006a 77EEE87A 		vsub.f32	s15, s15, s17
 161 006e F4EEC97A 		vcmpe.f32	s15, s18
 162 0072 F1EE10FA 		vmrs	APSR_nzcv, FPSCR
 163 0076 B8BF     		it	lt
 164 0078 F0EE497A 		vmovlt.f32	s15, s18
 165 007c 37EEAC8A 		vadd.f32	s16, s15, s25
 166 0080 28EE0D8A 		vmul.f32	s16, s16, s26
 167 0084 BCEEC88A 		vcvt.u32.f32	s16, s16
 168              	.LBE16:
 169              	.LBE17:
 170              		.loc 1 25 0
 171 0088 67EE087A 		vmul.f32	s15, s14, s16
ARM GAS  C:\msys64\tmp\ccIUdZ2e.s 			page 4


 172 008c 17EE900A 		vmov	r0, s15
 173 0090 FFF7FEFF 		bl	__aeabi_f2d
 174              	.LVL6:
 175 0094 41EC100B 		vmov	d0, r0, r1
 176 0098 FFF7FEFF 		bl	ceil
 177              	.LVL7:
 178 009c C8EE887A 		vdiv.f32	s15, s17, s16
 179 00a0 53EC102B 		vmov	r2, r3, d0
 180 00a4 17EE900A 		vmov	r0, s15
 181 00a8 CDE90023 		strd	r2, [sp]
 182 00ac FFF7FEFF 		bl	__aeabi_f2d
 183              	.LVL8:
 184 00b0 DDE90023 		ldrd	r2, [sp]
 185 00b4 FFF7FEFF 		bl	__aeabi_dmul
 186              	.LVL9:
 187 00b8 FFF7FEFF 		bl	__aeabi_d2f
 188              	.LVL10:
 189 00bc 07EE100A 		vmov	s14, r0
 190              	.L10:
 191              	.LBE20:
 192              	.LBE23:
 193              		.loc 1 49 0
 194 00c0 84ED007A 		vstr.32	s14, [r4]
 195 00c4 4046     		mov	r0, r8
 196 00c6 4C46     		mov	r4, r9
 197              		.loc 1 50 0
 198 00c8 18E0     		b	.L4
 199              	.LVL11:
 200              	.L8:
 201              		.loc 1 55 0
 202 00ca 0368     		ldr	r3, [r0]	@ float
 203 00cc 2360     		str	r3, [r4]	@ float
 204 00ce 0430     		adds	r0, r0, #4
 205              	.LVL12:
 206 00d0 0434     		adds	r4, r4, #4
 207              	.LVL13:
 208              		.loc 1 56 0
 209 00d2 13E0     		b	.L4
 210              	.L9:
 211              	.LVL14:
 212              		.loc 1 59 0
 213 00d4 F0EE687A 		vmov.f32	s15, s17
 214 00d8 EAEE2A7A 		vfma.f32	s15, s20, s21
 215              		.loc 1 60 0
 216 00dc 0434     		adds	r4, r4, #4
 217              	.LVL15:
 218              		.loc 1 59 0
 219 00de 0430     		adds	r0, r0, #4
 220              	.LVL16:
 221 00e0 10ED017A 		vldr.32	s14, [r0, #-4]
 222 00e4 67EE877A 		vmul.f32	s15, s15, s14
 223              	.LVL17:
 224              		.loc 1 60 0
 225 00e8 27EEA77A 		vmul.f32	s14, s15, s15
 226 00ec 27EE277A 		vmul.f32	s14, s14, s15
 227 00f0 2BEE477A 		vnmul.f32	s14, s22, s14
 228 00f4 A7EEAB7A 		vfma.f32	s14, s15, s23
ARM GAS  C:\msys64\tmp\ccIUdZ2e.s 			page 5


 229 00f8 04ED017A 		vstr.32	s14, [r4, #-4]
 230              	.LVL18:
 231              	.L4:
 232              		.loc 1 43 0 discriminator 2
 233 00fc 0135     		adds	r5, r5, #1
 234              	.LVL19:
 235 00fe 9FE7     		b	.L11
 236              	.L2:
 237              	.LBE24:
 238              		.loc 1 65 0
 239 0100 03B0     		add	sp, sp, #12
 240              		.cfi_def_cfa_offset 76
 241              		@ sp needed
 242 0102 BDEC0C8B 		vldm	sp!, {d8-d13}
 243              		.cfi_restore 90
 244              		.cfi_restore 91
 245              		.cfi_restore 88
 246              		.cfi_restore 89
 247              		.cfi_restore 86
 248              		.cfi_restore 87
 249              		.cfi_restore 84
 250              		.cfi_restore 85
 251              		.cfi_restore 82
 252              		.cfi_restore 83
 253              		.cfi_restore 80
 254              		.cfi_restore 81
 255              		.cfi_def_cfa_offset 28
 256 0106 BDE8F083 		pop	{r4, r5, r6, r7, r8, r9, pc}
 257              	.LVL20:
 258              	.L14:
 259 010a 00BF     		.align	2
 260              	.L13:
 261 010c 00000000 		.word	.LANCHOR0
 262 0110 0000FCC2 		.word	-1023672320
 263 0114 A9E2FD42 		.word	1123934889
 264 0118 0000004B 		.word	1258291200
 265              		.cfi_endproc
 266              	.LFE231:
 267              		.size	_hook_process, .-_hook_process
 268              		.align	1
 269              		.global	_hook_param
 270              		.thumb
 271              		.thumb_func
 272              		.type	_hook_param, %function
 273              	_hook_param:
 274              	.LFB232:
 275              		.loc 1 69 0
 276              		.cfi_startproc
 277              		@ args = 0, pretend = 0, frame = 0
 278              		@ frame_needed = 0, uses_anonymous_args = 0
 279              		@ link register save eliminated.
 280              	.LVL21:
 281              		.loc 1 71 0
 282 011c 07EE901A 		vmov	s15, r1	@ int
 283 0120 FAEEE07A 		vcvt.f32.s32	s15, s15, #31
 284              	.LVL22:
 285              		.loc 1 72 0
ARM GAS  C:\msys64\tmp\ccIUdZ2e.s 			page 6


 286 0124 10B1     		cbz	r0, .L17
 287 0126 0128     		cmp	r0, #1
 288 0128 22D0     		beq	.L18
 289 012a 7047     		bx	lr
 290              	.L17:
 291              		.loc 1 77 0
 292 012c B5EE007A 		vmov.f32	s14, #2.5e-1
 293              		.loc 1 75 0
 294 0130 1F4B     		ldr	r3, .L43
 295              		.loc 1 77 0
 296 0132 F4EEC77A 		vcmpe.f32	s15, s14
 297 0136 F1EE10FA 		vmrs	APSR_nzcv, FPSCR
 298              		.loc 1 75 0
 299 013a C3ED027A 		vstr.32	s15, [r3, #8]
 300              		.loc 1 77 0
 301 013e 02D5     		bpl	.L37
 302              		.loc 1 79 0
 303 0140 0822     		movs	r2, #8
 304 0142 5A60     		str	r2, [r3, #4]
 305 0144 7047     		bx	lr
 306              	.L37:
 307              		.loc 1 81 0
 308 0146 B6EE007A 		vmov.f32	s14, #5.0e-1
 309 014a F4EEC77A 		vcmpe.f32	s15, s14
 310 014e F1EE10FA 		vmrs	APSR_nzcv, FPSCR
 311 0152 02D5     		bpl	.L38
 312              		.loc 1 83 0
 313 0154 1022     		movs	r2, #16
 314 0156 5A60     		str	r2, [r3, #4]
 315 0158 7047     		bx	lr
 316              	.L38:
 317              		.loc 1 85 0
 318 015a B6EE087A 		vmov.f32	s14, #7.5e-1
 319 015e F4EEC77A 		vcmpe.f32	s15, s14
 320 0162 F1EE10FA 		vmrs	APSR_nzcv, FPSCR
 321              		.loc 1 87 0
 322 0166 4CBF     		ite	mi
 323 0168 2022     		movmi	r2, #32
 324              		.loc 1 91 0
 325 016a 4022     		movpl	r2, #64
 326 016c 5A60     		str	r2, [r3, #4]
 327 016e 7047     		bx	lr
 328              	.L18:
 329              		.loc 1 96 0
 330 0170 B5EE007A 		vmov.f32	s14, #2.5e-1
 331 0174 F4EEC77A 		vcmpe.f32	s15, s14
 332 0178 F1EE10FA 		vmrs	APSR_nzcv, FPSCR
 333 017c 0C4B     		ldr	r3, .L43
 334 017e 02D5     		bpl	.L40
 335              		.loc 1 98 0
 336 0180 0022     		movs	r2, #0
 337 0182 1A60     		str	r2, [r3]
 338 0184 7047     		bx	lr
 339              	.L40:
 340              		.loc 1 100 0
 341 0186 B6EE007A 		vmov.f32	s14, #5.0e-1
 342 018a F4EEC77A 		vcmpe.f32	s15, s14
ARM GAS  C:\msys64\tmp\ccIUdZ2e.s 			page 7


 343 018e F1EE10FA 		vmrs	APSR_nzcv, FPSCR
 344 0192 01D5     		bpl	.L41
 345              		.loc 1 102 0
 346 0194 1860     		str	r0, [r3]
 347 0196 7047     		bx	lr
 348              	.L41:
 349              		.loc 1 104 0
 350 0198 B6EE087A 		vmov.f32	s14, #7.5e-1
 351 019c F4EEC77A 		vcmpe.f32	s15, s14
 352 01a0 F1EE10FA 		vmrs	APSR_nzcv, FPSCR
 353              		.loc 1 106 0
 354 01a4 4CBF     		ite	mi
 355 01a6 0222     		movmi	r2, #2
 356              		.loc 1 110 0
 357 01a8 0322     		movpl	r2, #3
 358 01aa 1A60     		str	r2, [r3]
 359 01ac 7047     		bx	lr
 360              	.L44:
 361 01ae 00BF     		.align	2
 362              	.L43:
 363 01b0 00000000 		.word	.LANCHOR0
 364              		.cfi_endproc
 365              	.LFE232:
 366              		.size	_hook_param, .-_hook_param
 367              		.data
 368              		.align	2
 369              		.set	.LANCHOR0,. + 0
 370              		.type	_ZL4type, %object
 371              		.size	_ZL4type, 4
 372              	_ZL4type:
 373 0000 01000000 		.word	1
 374              		.type	_ZL8bit_rate, %object
 375              		.size	_ZL8bit_rate, 4
 376              	_ZL8bit_rate:
 377 0004 10000000 		.word	16
 378              		.type	_ZL5fxamt, %object
 379              		.size	_ZL5fxamt, 4
 380              	_ZL5fxamt:
 381 0008 0000003F 		.word	1056964608
 382              		.text
 383              	.Letext0:
 384              		.file 3 "c:\\users\\bradl\\desktop\\code projects\\korgfx\\logue-sdk\\tools\\gcc\\gcc-arm-none-eab
 385              		.file 4 "c:\\users\\bradl\\desktop\\code projects\\korgfx\\logue-sdk\\tools\\gcc\\gcc-arm-none-eab
 386              		.file 5 "./inc/fx_api.h"
 387              		.file 6 "./inc/userprg.h"
 388              		.file 7 "c:\\users\\bradl\\desktop\\code projects\\korgfx\\logue-sdk\\tools\\gcc\\gcc-arm-none-eab